target datalayout = "e-m:e-p270:32:32-p271:32:32-p272:64:64-i64:64-i128:128-f80:128-n8:16:32:64-S128"
target triple = "x86_64-pc-linux-gnu"

@_ZN6evmone6cryptoL12sha_256_bestE = internal global ptr @_ZN6evmone6cryptoL15sha_256_genericEPjPKSt4bytem, align 8
@__const._ZN6evmone6crypto6sha256EPSt4bytePKS1_m.h = private unnamed_addr constant [8 x i32] [i32 1779033703, i32 -1150833019, i32 1013904242, i32 -1521486534, i32 1359893119, i32 -1694144372, i32 528734635, i32 1541459225], align 16

; Function Attrs: mustprogress uwtable
define hidden void @_ZN6evmone6crypto6sha256EPSt4bytePKS1_m(ptr noundef %0, ptr noundef %1, i64 noundef %2) #0 {
  %4 = alloca ptr, align 8
  %5 = alloca ptr, align 8
  %6 = alloca i64, align 8
  %7 = alloca [8 x i32], align 16
  %8 = alloca i32, align 4
  %9 = alloca i32, align 4
  store ptr %0, ptr %4, align 8, !tbaa !11
  store ptr %1, ptr %5, align 8, !tbaa !11
  store i64 %2, ptr %6, align 8, !tbaa !16
  call void @llvm.lifetime.start.p0(ptr %7) #12
  call void @llvm.memcpy.p0.p0.i64(ptr align 16 %7, ptr align 16 @__const._ZN6evmone6crypto6sha256EPSt4bytePKS1_m.h, i64 32, i1 false)
  %10 = load ptr, ptr @_ZN6evmone6cryptoL12sha_256_bestE, align 8, !tbaa !11
  %11 = getelementptr inbounds [8 x i32], ptr %7, i64 0, i64 0
  %12 = load ptr, ptr %5, align 8, !tbaa !11
  %13 = load i64, ptr %6, align 8, !tbaa !16
  call void %10(ptr noundef %11, ptr noundef %12, i64 noundef %13)
  call void @llvm.lifetime.start.p0(ptr %8) #12
  store i32 0, ptr %8, align 4, !tbaa !3
  call void @llvm.lifetime.start.p0(ptr %9) #12
  store i32 0, ptr %9, align 4, !tbaa !3
  br label %14

14:                                               ; preds = %62, %3
  %15 = load i32, ptr %8, align 4, !tbaa !3
  %16 = icmp ult i32 %15, 8
  br i1 %16, label %18, label %17

17:                                               ; preds = %14
  call void @llvm.lifetime.end.p0(ptr %9) #12
  call void @llvm.lifetime.end.p0(ptr %8) #12
  br label %65

18:                                               ; preds = %14
  %19 = load i32, ptr %8, align 4, !tbaa !3
  %20 = zext i32 %19 to i64
  %21 = getelementptr inbounds nuw [8 x i32], ptr %7, i64 0, i64 %20
  %22 = load i32, ptr %21, align 4, !tbaa !3
  %23 = lshr i32 %22, 24
  %24 = trunc i32 %23 to i8
  %25 = load ptr, ptr %4, align 8, !tbaa !11
  %26 = load i32, ptr %9, align 4, !tbaa !3
  %27 = add i32 %26, 1
  store i32 %27, ptr %9, align 4, !tbaa !3
  %28 = zext i32 %26 to i64
  %29 = getelementptr inbounds nuw i8, ptr %25, i64 %28
  store i8 %24, ptr %29, align 1, !tbaa !18
  %30 = load i32, ptr %8, align 4, !tbaa !3
  %31 = zext i32 %30 to i64
  %32 = getelementptr inbounds nuw [8 x i32], ptr %7, i64 0, i64 %31
  %33 = load i32, ptr %32, align 4, !tbaa !3
  %34 = lshr i32 %33, 16
  %35 = trunc i32 %34 to i8
  %36 = load ptr, ptr %4, align 8, !tbaa !11
  %37 = load i32, ptr %9, align 4, !tbaa !3
  %38 = add i32 %37, 1
  store i32 %38, ptr %9, align 4, !tbaa !3
  %39 = zext i32 %37 to i64
  %40 = getelementptr inbounds nuw i8, ptr %36, i64 %39
  store i8 %35, ptr %40, align 1, !tbaa !18
  %41 = load i32, ptr %8, align 4, !tbaa !3
  %42 = zext i32 %41 to i64
  %43 = getelementptr inbounds nuw [8 x i32], ptr %7, i64 0, i64 %42
  %44 = load i32, ptr %43, align 4, !tbaa !3
  %45 = lshr i32 %44, 8
  %46 = trunc i32 %45 to i8
  %47 = load ptr, ptr %4, align 8, !tbaa !11
  %48 = load i32, ptr %9, align 4, !tbaa !3
  %49 = add i32 %48, 1
  store i32 %49, ptr %9, align 4, !tbaa !3
  %50 = zext i32 %48 to i64
  %51 = getelementptr inbounds nuw i8, ptr %47, i64 %50
  store i8 %46, ptr %51, align 1, !tbaa !18
  %52 = load i32, ptr %8, align 4, !tbaa !3
  %53 = zext i32 %52 to i64
  %54 = getelementptr inbounds nuw [8 x i32], ptr %7, i64 0, i64 %53
  %55 = load i32, ptr %54, align 4, !tbaa !3
  %56 = trunc i32 %55 to i8
  %57 = load ptr, ptr %4, align 8, !tbaa !11
  %58 = load i32, ptr %9, align 4, !tbaa !3
  %59 = add i32 %58, 1
  store i32 %59, ptr %9, align 4, !tbaa !3
  %60 = zext i32 %58 to i64
  %61 = getelementptr inbounds nuw i8, ptr %57, i64 %60
  store i8 %56, ptr %61, align 1, !tbaa !18
  br label %62

62:                                               ; preds = %18
  %63 = load i32, ptr %8, align 4, !tbaa !3
  %64 = add i32 %63, 1
  store i32 %64, ptr %8, align 4, !tbaa !3
  br label %14, !llvm.loop !21

65:                                               ; preds = %17
  call void @llvm.lifetime.end.p0(ptr %7) #12
  ret void
}