; Function Attrs: mustprogress uwtable
define hidden void @_ZN6evmone6crypto6sha256EPSt4bytePKS1_m(ptr noundef writeonly captures(none) %0, ptr noundef %1, i64 noundef %2) local_unnamed_addr #4 {
  %4 = alloca [8 x i32], align 16
  call void @llvm.lifetime.start.p0(ptr nonnull %4) #11
  call void @llvm.memcpy.p0.p0.i64(ptr noundef nonnull align 16 dereferenceable(32) %4, ptr noundef nonnull align 16 dereferenceable(32) @__const._ZN6evmone6crypto6sha256EPSt4bytePKS1_m.h, i64 32, i1 false)
  %5 = load ptr, ptr @_ZN6evmone6cryptoL12sha_256_bestE, align 8, !tbaa !4
  call void %5(ptr noundef nonnull %4, ptr noundef %1, i64 noundef %2), !callees !18
  br label %7

6:                                                ; preds = %7
  call void @llvm.lifetime.end.p0(ptr nonnull %4) #11
  ret void

7:                                                ; preds = %3, %7
  %indvars.iv18 = phi i64 [ 0, %3 ], [ %indvars.iv.next19, %7 ]
  %indvars.iv = phi i64 [ 0, %3 ], [ %indvars.iv.next, %7 ]
  %8 = getelementptr inbounds nuw i32, ptr %4, i64 %indvars.iv18
  %9 = load i32, ptr %8, align 4, !tbaa !12
  %10 = lshr i32 %9, 24
  %11 = trunc nuw i32 %10 to i8
  %12 = getelementptr inbounds nuw i8, ptr %0, i64 %indvars.iv
  store i8 %11, ptr %12, align 1, !tbaa !8
  %13 = lshr i32 %9, 16
  %14 = trunc i32 %13 to i8
  %15 = getelementptr inbounds nuw i8, ptr %0, i64 %indvars.iv
  %16 = getelementptr inbounds nuw i8, ptr %15, i64 1
  store i8 %14, ptr %16, align 1, !tbaa !8
  %17 = lshr i32 %9, 8
  %18 = trunc i32 %17 to i8
  %19 = getelementptr inbounds nuw i8, ptr %0, i64 %indvars.iv
  %20 = getelementptr inbounds nuw i8, ptr %19, i64 2
  store i8 %18, ptr %20, align 1, !tbaa !8
  %21 = trunc i32 %9 to i8
  %indvars.iv.next = add nuw nsw i64 %indvars.iv, 4
  %22 = getelementptr inbounds nuw i8, ptr %0, i64 %indvars.iv
  %23 = getelementptr inbounds nuw i8, ptr %22, i64 3
  store i8 %21, ptr %23, align 1, !tbaa !8
  %indvars.iv.next19 = add nuw nsw i64 %indvars.iv18, 1
  %exitcond.not = icmp eq i64 %indvars.iv.next19, 8
  br i1 %exitcond.not, label %6, label %7, !llvm.loop !19
}